target datalayout = "e-m:e-p270:32:32-p271:32:32-p272:64:64-i64:64-i128:128-f80:128-n8:16:32:64-S128"
target triple = "x86_64-pc-linux-gnu"

%struct.Vec_Int_t_ = type { i32, i32, ptr }
%struct.Vec_Wrd_t_ = type { i32, i32, ptr }

; Function Attrs: inlinehint nounwind uwtable
define internal i32 @Abc_TtCountOnes(i64 noundef %0) #2 {
  %2 = alloca i64, align 8
  store i64 %0, ptr %2, align 8, !tbaa !65
  %3 = load i64, ptr %2, align 8, !tbaa !65
  %4 = load i64, ptr %2, align 8, !tbaa !65
  %5 = lshr i64 %4, 1
  %6 = and i64 %5, 6148914691236517205
  %7 = sub i64 %3, %6
  store i64 %7, ptr %2, align 8, !tbaa !65
  %8 = load i64, ptr %2, align 8, !tbaa !65
  %9 = and i64 %8, 3689348814741910323
  %10 = load i64, ptr %2, align 8, !tbaa !65
  %11 = lshr i64 %10, 2
  %12 = and i64 %11, 3689348814741910323
  %13 = add i64 %9, %12
  store i64 %13, ptr %2, align 8, !tbaa !65
  %14 = load i64, ptr %2, align 8, !tbaa !65
  %15 = load i64, ptr %2, align 8, !tbaa !65
  %16 = lshr i64 %15, 4
  %17 = add i64 %14, %16
  %18 = and i64 %17, 1085102592571150095
  store i64 %18, ptr %2, align 8, !tbaa !65
  %19 = load i64, ptr %2, align 8, !tbaa !65
  %20 = load i64, ptr %2, align 8, !tbaa !65
  %21 = lshr i64 %20, 8
  %22 = add i64 %19, %21
  store i64 %22, ptr %2, align 8, !tbaa !65
  %23 = load i64, ptr %2, align 8, !tbaa !65
  %24 = load i64, ptr %2, align 8, !tbaa !65
  %25 = lshr i64 %24, 16
  %26 = add i64 %23, %25
  store i64 %26, ptr %2, align 8, !tbaa !65
  %27 = load i64, ptr %2, align 8, !tbaa !65
  %28 = load i64, ptr %2, align 8, !tbaa !65
  %29 = lshr i64 %28, 32
  %30 = add i64 %27, %29
  store i64 %30, ptr %2, align 8, !tbaa !65
  %31 = load i64, ptr %2, align 8, !tbaa !65
  %32 = and i64 %31, 255
  %33 = trunc i64 %32 to i32
  ret i32 %33
}

; Function Attrs: inlinehint nounwind uwtable
define internal i32 @Abc_TtCountOnes2(i64 noundef %0) #2 {
  %2 = alloca i64, align 8
  store i64 %0, ptr %2, align 8, !tbaa !65
  %3 = load i64, ptr %2, align 8, !tbaa !65
  %4 = icmp ne i64 %3, 0
  br i1 %4, label %5, label %8

5:                                                ; preds = %1
  %6 = load i64, ptr %2, align 8, !tbaa !65
  %7 = call i32 @Abc_TtCountOnes(i64 noundef %6)
  br label %9

8:                                                ; preds = %1
  br label %9

9:                                                ; preds = %8, %5
  %10 = phi i32 [ %7, %5 ], [ 0, %8 ]
  ret i32 %10
}

; Function Attrs: inlinehint nounwind uwtable
define internal i32 @Abc_TtCountOnesVecMask(ptr noundef %0, ptr noundef %1, i32 noundef %2, i32 noundef %3) #2 {
  %5 = alloca ptr, align 8
  %6 = alloca ptr, align 8
  %7 = alloca i32, align 4
  %8 = alloca i32, align 4
  %9 = alloca i32, align 4
  %10 = alloca i32, align 4
  store ptr %0, ptr %5, align 8, !tbaa !76
  store ptr %1, ptr %6, align 8, !tbaa !76
  store i32 %2, ptr %7, align 4, !tbaa !10
  store i32 %3, ptr %8, align 4, !tbaa !10
  call void @llvm.lifetime.start.p0(i64 4, ptr %9) #14
  call void @llvm.lifetime.start.p0(i64 4, ptr %10) #14
  store i32 0, ptr %10, align 4, !tbaa !10
  %11 = load i32, ptr %8, align 4, !tbaa !10
  %12 = icmp ne i32 %11, 0
  br i1 %12, label %13, label %38

13:                                               ; preds = %4
  store i32 0, ptr %9, align 4, !tbaa !10
  br label %14

14:                                               ; preds = %34, %13
  %15 = load i32, ptr %9, align 4, !tbaa !10
  %16 = load i32, ptr %7, align 4, !tbaa !10
  %17 = icmp slt i32 %15, %16
  br i1 %17, label %18, label %37

18:                                               ; preds = %14
  %19 = load ptr, ptr %6, align 8, !tbaa !76
  %20 = load i32, ptr %9, align 4, !tbaa !10
  %21 = sext i32 %20 to i64
  %22 = getelementptr inbounds i64, ptr %19, i64 %21
  %23 = load i64, ptr %22, align 8, !tbaa !65
  %24 = load ptr, ptr %5, align 8, !tbaa !76
  %25 = load i32, ptr %9, align 4, !tbaa !10
  %26 = sext i32 %25 to i64
  %27 = getelementptr inbounds i64, ptr %24, i64 %26
  %28 = load i64, ptr %27, align 8, !tbaa !65
  %29 = xor i64 %28, -1
  %30 = and i64 %23, %29
  %31 = call i32 @Abc_TtCountOnes2(i64 noundef %30)
  %32 = load i32, ptr %10, align 4, !tbaa !10
  %33 = add nsw i32 %32, %31
  store i32 %33, ptr %10, align 4, !tbaa !10
  br label %34

34:                                               ; preds = %18
  %35 = load i32, ptr %9, align 4, !tbaa !10
  %36 = add nsw i32 %35, 1
  store i32 %36, ptr %9, align 4, !tbaa !10
  br label %14, !llvm.loop !188

37:                                               ; preds = %14
  br label %62

38:                                               ; preds = %4
  store i32 0, ptr %9, align 4, !tbaa !10
  br label %39

39:                                               ; preds = %58, %38
  %40 = load i32, ptr %9, align 4, !tbaa !10
  %41 = load i32, ptr %7, align 4, !tbaa !10
  %42 = icmp slt i32 %40, %41
  br i1 %42, label %43, label %61

43:                                               ; preds = %39
  %44 = load ptr, ptr %6, align 8, !tbaa !76
  %45 = load i32, ptr %9, align 4, !tbaa !10
  %46 = sext i32 %45 to i64
  %47 = getelementptr inbounds i64, ptr %44, i64 %46
  %48 = load i64, ptr %47, align 8, !tbaa !65
  %49 = load ptr, ptr %5, align 8, !tbaa !76
  %50 = load i32, ptr %9, align 4, !tbaa !10
  %51 = sext i32 %50 to i64
  %52 = getelementptr inbounds i64, ptr %49, i64 %51
  %53 = load i64, ptr %52, align 8, !tbaa !65
  %54 = and i64 %48, %53
  %55 = call i32 @Abc_TtCountOnes2(i64 noundef %54)
  %56 = load i32, ptr %10, align 4, !tbaa !10
  %57 = add nsw i32 %56, %55
  store i32 %57, ptr %10, align 4, !tbaa !10
  br label %58

58:                                               ; preds = %43
  %59 = load i32, ptr %9, align 4, !tbaa !10
  %60 = add nsw i32 %59, 1
  store i32 %60, ptr %9, align 4, !tbaa !10
  br label %39, !llvm.loop !189

61:                                               ; preds = %39
  br label %62

62:                                               ; preds = %61, %37
  %63 = load i32, ptr %10, align 4, !tbaa !10
  call void @llvm.lifetime.end.p0(i64 4, ptr %10) #14
  call void @llvm.lifetime.end.p0(i64 4, ptr %9) #14
  ret i32 %63
}

; Function Attrs: inlinehint nounwind uwtable
define internal ptr @Vec_WrdEntryP(ptr noundef %0, i32 noundef %1) #2 {
  %3 = alloca ptr, align 8
  %4 = alloca i32, align 4
  store ptr %0, ptr %3, align 8, !tbaa !85
  store i32 %1, ptr %4, align 4, !tbaa !10
  %5 = load ptr, ptr %3, align 8, !tbaa !85
  %6 = getelementptr inbounds nuw %struct.Vec_Wrd_t_, ptr %5, i32 0, i32 2
  %7 = load ptr, ptr %6, align 8, !tbaa !89
  %8 = load i32, ptr %4, align 4, !tbaa !10
  %9 = sext i32 %8 to i64
  %10 = getelementptr inbounds i64, ptr %7, i64 %9
  ret ptr %10
}

; Function Attrs: inlinehint nounwind uwtable
define internal i32 @Vec_IntEntry(ptr noundef %0, i32 noundef %1) #2 {
  %3 = alloca ptr, align 8
  %4 = alloca i32, align 4
  store ptr %0, ptr %3, align 8, !tbaa !12
  store i32 %1, ptr %4, align 4, !tbaa !10
  %5 = load ptr, ptr %3, align 8, !tbaa !12
  %6 = getelementptr inbounds nuw %struct.Vec_Int_t_, ptr %5, i32 0, i32 2
  %7 = load ptr, ptr %6, align 8, !tbaa !18
  %8 = load i32, ptr %4, align 4, !tbaa !10
  %9 = sext i32 %8 to i64
  %10 = getelementptr inbounds i32, ptr %7, i64 %9
  %11 = load i32, ptr %10, align 4, !tbaa !10
  ret i32 %11
}

; Function Attrs: inlinehint nounwind uwtable
define internal i32 @Vec_WrdSize(ptr noundef %0) #2 {
  %2 = alloca ptr, align 8
  store ptr %0, ptr %2, align 8, !tbaa !85
  %3 = load ptr, ptr %2, align 8, !tbaa !85
  %4 = getelementptr inbounds nuw %struct.Vec_Wrd_t_, ptr %3, i32 0, i32 1
  %5 = load i32, ptr %4, align 4, !tbaa !86
  ret i32 %5
}

; Function Attrs: nounwind uwtable
define i32 @Gia_ManDeriveCost(ptr noundef %0, i32 noundef %1, ptr noundef %2, ptr noundef %3) #0 {
  %5 = alloca ptr, align 8
  %6 = alloca i32, align 4
  %7 = alloca ptr, align 8
  %8 = alloca ptr, align 8
  %9 = alloca i32, align 4
  %10 = alloca i32, align 4
  %11 = alloca i32, align 4
  %12 = alloca [2 x i32], align 4
  %13 = alloca [2 x i32], align 4
  store ptr %0, ptr %5, align 8, !tbaa !85
  store i32 %1, ptr %6, align 4, !tbaa !10
  store ptr %2, ptr %7, align 8, !tbaa !76
  store ptr %3, ptr %8, align 8, !tbaa !12
  call void @llvm.lifetime.start.p0(i64 4, ptr %9) #14
  call void @llvm.lifetime.start.p0(i64 4, ptr %10) #14
  store i32 0, ptr %10, align 4, !tbaa !10
  call void @llvm.lifetime.start.p0(i64 4, ptr %11) #14
  %14 = load ptr, ptr %5, align 8, !tbaa !85
  %15 = call i32 @Vec_WrdSize(ptr noundef %14)
  %16 = load i32, ptr %6, align 4, !tbaa !10
  %17 = sdiv i32 %15, %16
  %18 = sdiv i32 %17, 2
  store i32 %18, ptr %11, align 4, !tbaa !10
  store i32 0, ptr %9, align 4, !tbaa !10
  br label %19

19:                                               ; preds = %75, %4
  %20 = load i32, ptr %9, align 4, !tbaa !10
  %21 = load i32, ptr %11, align 4, !tbaa !10
  %22 = icmp slt i32 %20, %21
  br i1 %22, label %23, label %78

23:                                               ; preds = %19
  call void @llvm.lifetime.start.p0(i64 8, ptr %12) #14
  %24 = load ptr, ptr %8, align 8, !tbaa !12
  %25 = load i32, ptr %9, align 4, !tbaa !10
  %26 = mul nsw i32 2, %25
  %27 = add nsw i32 %26, 0
  %28 = call i32 @Vec_IntEntry(ptr noundef %24, i32 noundef %27)
  store i32 %28, ptr %12, align 4, !tbaa !10
  %29 = getelementptr inbounds i32, ptr %12, i64 1
  %30 = load ptr, ptr %8, align 8, !tbaa !12
  %31 = load i32, ptr %9, align 4, !tbaa !10
  %32 = mul nsw i32 2, %31
  %33 = add nsw i32 %32, 1
  %34 = call i32 @Vec_IntEntry(ptr noundef %30, i32 noundef %33)
  store i32 %34, ptr %29, align 4, !tbaa !10
  call void @llvm.lifetime.start.p0(i64 8, ptr %13) #14
  %35 = load ptr, ptr %5, align 8, !tbaa !85
  %36 = load i32, ptr %9, align 4, !tbaa !10
  %37 = mul nsw i32 2, %36
  %38 = add nsw i32 %37, 0
  %39 = load i32, ptr %6, align 4, !tbaa !10
  %40 = mul nsw i32 %38, %39
  %41 = call ptr @Vec_WrdEntryP(ptr noundef %35, i32 noundef %40)
  %42 = load ptr, ptr %7, align 8, !tbaa !76
  %43 = load i32, ptr %6, align 4, !tbaa !10
  %44 = call i32 @Abc_TtCountOnesVecMask(ptr noundef %41, ptr noundef %42, i32 noundef %43, i32 noundef 0)
  store i32 %44, ptr %13, align 4, !tbaa !10
  %45 = getelementptr inbounds i32, ptr %13, i64 1
  %46 = load ptr, ptr %5, align 8, !tbaa !85
  %47 = load i32, ptr %9, align 4, !tbaa !10
  %48 = mul nsw i32 2, %47
  %49 = add nsw i32 %48, 1
  %50 = load i32, ptr %6, align 4, !tbaa !10
  %51 = mul nsw i32 %49, %50
  %52 = call ptr @Vec_WrdEntryP(ptr noundef %46, i32 noundef %51)
  %53 = load ptr, ptr %7, align 8, !tbaa !76
  %54 = load i32, ptr %6, align 4, !tbaa !10
  %55 = call i32 @Abc_TtCountOnesVecMask(ptr noundef %52, ptr noundef %53, i32 noundef %54, i32 noundef 0)
  store i32 %55, ptr %45, align 4, !tbaa !10
  %56 = getelementptr inbounds [2 x i32], ptr %13, i64 0, i64 0
  %57 = load i32, ptr %56, align 4, !tbaa !10
  %58 = getelementptr inbounds [2 x i32], ptr %13, i64 0, i64 1
  %59 = load i32, ptr %58, align 4, !tbaa !10
  %60 = mul nsw i32 %57, %59
  %61 = getelementptr inbounds [2 x i32], ptr %12, i64 0, i64 0
  %62 = load i32, ptr %61, align 4, !tbaa !10
  %63 = getelementptr inbounds [2 x i32], ptr %13, i64 0, i64 0
  %64 = load i32, ptr %63, align 4, !tbaa !10
  %65 = sub nsw i32 %62, %64
  %66 = getelementptr inbounds [2 x i32], ptr %12, i64 0, i64 1
  %67 = load i32, ptr %66, align 4, !tbaa !10
  %68 = getelementptr inbounds [2 x i32], ptr %13, i64 0, i64 1
  %69 = load i32, ptr %68, align 4, !tbaa !10
  %70 = sub nsw i32 %67, %69
  %71 = mul nsw i32 %65, %70
  %72 = add nsw i32 %60, %71
  %73 = load i32, ptr %10, align 4, !tbaa !10
  %74 = add nsw i32 %73, %72
  store i32 %74, ptr %10, align 4, !tbaa !10
  call void @llvm.lifetime.end.p0(i64 8, ptr %13) #14
  call void @llvm.lifetime.end.p0(i64 8, ptr %12) #14
  br label %75

75:                                               ; preds = %23
  %76 = load i32, ptr %9, align 4, !tbaa !10
  %77 = add nsw i32 %76, 1
  store i32 %77, ptr %9, align 4, !tbaa !10
  br label %19, !llvm.loop !242

78:                                               ; preds = %19
  %79 = load i32, ptr %10, align 4, !tbaa !10
  call void @llvm.lifetime.end.p0(i64 4, ptr %11) #14
  call void @llvm.lifetime.end.p0(i64 4, ptr %10) #14
  call void @llvm.lifetime.end.p0(i64 4, ptr %9) #14
  ret i32 %79
}