; Function Attrs: nofree norecurse nosync nounwind memory(read, inaccessiblemem: none) uwtable
define i32 @Gia_ManDeriveCost(ptr noundef readonly captures(none) %0, i32 noundef %1, ptr noundef readonly captures(none) %2, ptr noundef readonly captures(none) %3) local_unnamed_addr #13 {
  %5 = getelementptr i8, ptr %0, i64 4
  %.val27 = load i32, ptr %5, align 4, !tbaa !81
  %6 = sdiv i32 %.val27, %1
  %7 = icmp sgt i32 %6, 1
  br i1 %7, label %.lr.ph, label %._crit_edge

.lr.ph:                                           ; preds = %4
  %8 = lshr i32 %6, 1
  %9 = getelementptr i8, ptr %3, i64 8
  %.val24 = load ptr, ptr %9, align 8, !tbaa !30
  %10 = getelementptr i8, ptr %0, i64 8
  %.val26 = load ptr, ptr %10, align 8, !tbaa !84
  %11 = icmp sgt i32 %1, 0
  %wide.trip.count35.i = zext i32 %1 to i64
  %wide.trip.count52 = zext nneg i32 %8 to i64
  br i1 %11, label %.lr.ph27.preheader.i.us, label %Abc_TtCountOnesVecMask.exit38

.lr.ph27.preheader.i.us:                          ; preds = %.lr.ph, %Abc_TtCountOnesVecMask.exit38.loopexit.us
  %indvars.iv49 = phi i64 [ %indvars.iv.next50, %Abc_TtCountOnesVecMask.exit38.loopexit.us ], [ 0, %.lr.ph ]
  %.02342.us = phi i32 [ %79, %Abc_TtCountOnesVecMask.exit38.loopexit.us ], [ 0, %.lr.ph ]
  %12 = shl nuw nsw i64 %indvars.iv49, 1
  %13 = getelementptr inbounds nuw i32, ptr %.val24, i64 %12
  %14 = load i32, ptr %13, align 4, !tbaa !31
  %15 = or disjoint i64 %12, 1
  %16 = getelementptr inbounds nuw i32, ptr %.val24, i64 %15
  %17 = load i32, ptr %16, align 4, !tbaa !31
  %18 = mul nuw nsw i64 %12, %wide.trip.count35.i
  %19 = getelementptr inbounds nuw i64, ptr %.val26, i64 %18
  br label %.lr.ph27.i.us

.lr.ph27.i.us:                                    ; preds = %Abc_TtCountOnes2.exit20.i.us, %.lr.ph27.preheader.i.us
  %indvars.iv32.i.us = phi i64 [ 0, %.lr.ph27.preheader.i.us ], [ %indvars.iv.next33.i.us, %Abc_TtCountOnes2.exit20.i.us ]
  %.226.i.us = phi i32 [ 0, %.lr.ph27.preheader.i.us ], [ %45, %Abc_TtCountOnes2.exit20.i.us ]
  %20 = getelementptr inbounds nuw i64, ptr %2, i64 %indvars.iv32.i.us
  %21 = load i64, ptr %20, align 8, !tbaa !94
  %22 = getelementptr inbounds nuw i64, ptr %19, i64 %indvars.iv32.i.us
  %23 = load i64, ptr %22, align 8, !tbaa !94
  %24 = and i64 %23, %21
  %.not.i19.i.us = icmp eq i64 %24, 0
  br i1 %.not.i19.i.us, label %Abc_TtCountOnes2.exit20.i.us, label %25

25:                                               ; preds = %.lr.ph27.i.us
  %26 = lshr i64 %24, 1
  %27 = and i64 %26, 6148914691236517205
  %28 = sub i64 %24, %27
  %29 = and i64 %28, 3689348814741910323
  %30 = lshr i64 %28, 2
  %31 = and i64 %30, 3689348814741910323
  %32 = add nuw nsw i64 %31, %29
  %33 = lshr i64 %32, 4
  %34 = add nuw nsw i64 %33, %32
  %35 = and i64 %34, 1085102592571150095
  %36 = lshr i64 %35, 8
  %37 = add nuw nsw i64 %36, %35
  %38 = lshr i64 %37, 16
  %39 = add nuw nsw i64 %38, %37
  %40 = lshr i64 %39, 32
  %41 = add nuw nsw i64 %40, %39
  %42 = trunc i64 %41 to i32
  %43 = and i32 %42, 255
  br label %Abc_TtCountOnes2.exit20.i.us

Abc_TtCountOnes2.exit20.i.us:                     ; preds = %25, %.lr.ph27.i.us
  %44 = phi i32 [ %43, %25 ], [ 0, %.lr.ph27.i.us ]
  %45 = add nuw nsw i32 %44, %.226.i.us
  %indvars.iv.next33.i.us = add nuw nsw i64 %indvars.iv32.i.us, 1
  %exitcond36.not.i.us = icmp eq i64 %indvars.iv.next33.i.us, %wide.trip.count35.i
  br i1 %exitcond36.not.i.us, label %Abc_TtCountOnesVecMask.exit.us, label %.lr.ph27.i.us, !llvm.loop !164

Abc_TtCountOnesVecMask.exit.us:                   ; preds = %Abc_TtCountOnes2.exit20.i.us
  %46 = mul nuw nsw i64 %15, %wide.trip.count35.i
  %47 = getelementptr inbounds nuw i64, ptr %.val26, i64 %46
  br label %.lr.ph27.i31.us

.lr.ph27.i31.us:                                  ; preds = %Abc_TtCountOnes2.exit20.i35.us, %Abc_TtCountOnesVecMask.exit.us
  %indvars.iv32.i32.us = phi i64 [ 0, %Abc_TtCountOnesVecMask.exit.us ], [ %indvars.iv.next33.i36.us, %Abc_TtCountOnes2.exit20.i35.us ]
  %.226.i33.us = phi i32 [ 0, %Abc_TtCountOnesVecMask.exit.us ], [ %73, %Abc_TtCountOnes2.exit20.i35.us ]
  %48 = getelementptr inbounds nuw i64, ptr %2, i64 %indvars.iv32.i32.us
  %49 = load i64, ptr %48, align 8, !tbaa !94
  %50 = getelementptr inbounds nuw i64, ptr %47, i64 %indvars.iv32.i32.us
  %51 = load i64, ptr %50, align 8, !tbaa !94
  %52 = and i64 %51, %49
  %.not.i19.i34.us = icmp eq i64 %52, 0
  br i1 %.not.i19.i34.us, label %Abc_TtCountOnes2.exit20.i35.us, label %53

53:                                               ; preds = %.lr.ph27.i31.us
  %54 = lshr i64 %52, 1
  %55 = and i64 %54, 6148914691236517205
  %56 = sub i64 %52, %55
  %57 = and i64 %56, 3689348814741910323
  %58 = lshr i64 %56, 2
  %59 = and i64 %58, 3689348814741910323
  %60 = add nuw nsw i64 %59, %57
  %61 = lshr i64 %60, 4
  %62 = add nuw nsw i64 %61, %60
  %63 = and i64 %62, 1085102592571150095
  %64 = lshr i64 %63, 8
  %65 = add nuw nsw i64 %64, %63
  %66 = lshr i64 %65, 16
  %67 = add nuw nsw i64 %66, %65
  %68 = lshr i64 %67, 32
  %69 = add nuw nsw i64 %68, %67
  %70 = trunc i64 %69 to i32
  %71 = and i32 %70, 255
  br label %Abc_TtCountOnes2.exit20.i35.us

Abc_TtCountOnes2.exit20.i35.us:                   ; preds = %53, %.lr.ph27.i31.us
  %72 = phi i32 [ %71, %53 ], [ 0, %.lr.ph27.i31.us ]
  %73 = add nuw nsw i32 %72, %.226.i33.us
  %indvars.iv.next33.i36.us = add nuw nsw i64 %indvars.iv32.i32.us, 1
  %exitcond36.not.i37.us = icmp eq i64 %indvars.iv.next33.i36.us, %wide.trip.count35.i
  br i1 %exitcond36.not.i37.us, label %Abc_TtCountOnesVecMask.exit38.loopexit.us, label %.lr.ph27.i31.us, !llvm.loop !164

Abc_TtCountOnesVecMask.exit38.loopexit.us:        ; preds = %Abc_TtCountOnes2.exit20.i35.us
  %74 = mul nuw nsw i32 %73, %45
  %75 = sub nsw i32 %14, %45
  %76 = sub nsw i32 %17, %73
  %77 = mul nsw i32 %76, %75
  %78 = add i32 %74, %.02342.us
  %79 = add i32 %78, %77
  %indvars.iv.next50 = add nuw nsw i64 %indvars.iv49, 1
  %exitcond53.not = icmp eq i64 %indvars.iv.next50, %wide.trip.count52
  br i1 %exitcond53.not, label %._crit_edge, label %.lr.ph27.preheader.i.us, !llvm.loop !218

Abc_TtCountOnesVecMask.exit38:                    ; preds = %.lr.ph, %Abc_TtCountOnesVecMask.exit38
  %indvars.iv = phi i64 [ %indvars.iv.next, %Abc_TtCountOnesVecMask.exit38 ], [ 0, %.lr.ph ]
  %.02342 = phi i32 [ %87, %Abc_TtCountOnesVecMask.exit38 ], [ 0, %.lr.ph ]
  %80 = shl nuw nsw i64 %indvars.iv, 1
  %81 = getelementptr inbounds nuw i32, ptr %.val24, i64 %80
  %82 = load i32, ptr %81, align 4, !tbaa !31
  %83 = or disjoint i64 %80, 1
  %84 = getelementptr inbounds nuw i32, ptr %.val24, i64 %83
  %85 = load i32, ptr %84, align 4, !tbaa !31
  %86 = mul nsw i32 %85, %82
  %87 = add i32 %.02342, %86
  %indvars.iv.next = add nuw nsw i64 %indvars.iv, 1
  %exitcond.not = icmp eq i64 %indvars.iv.next, %wide.trip.count52
  br i1 %exitcond.not, label %._crit_edge, label %Abc_TtCountOnesVecMask.exit38, !llvm.loop !218

._crit_edge:                                      ; preds = %Abc_TtCountOnesVecMask.exit38, %Abc_TtCountOnesVecMask.exit38.loopexit.us, %4
  %.023.lcssa = phi i32 [ 0, %4 ], [ %79, %Abc_TtCountOnesVecMask.exit38.loopexit.us ], [ %87, %Abc_TtCountOnesVecMask.exit38 ]
  ret i32 %.023.lcssa
}